#include <math.h>
#include <stdio.h>
#include <stdlib.h>
#include <string.h>

int main(){
int n;
scanf("%d",&n);
for(int i=1;;i++){
if(n!=1){
	if(n%2!=0){
		n=3*n+1;
	printf("%d*3+1=%d\n",(n-1)/3,n);
	}
	if(n%2==0){
		n=n/2;
	printf("%d/2=%d\n",2*n,n);
	}
	}
else
break;
}
printf("End");
	return 0;
}
